; ModuleID = '40/306.c'
source_filename = "40/306.c"
target datalayout = "e-m:e-p270:32:32-p271:32:32-p272:64:64-i64:64-f80:128-n8:16:32:64-S128"
target triple = "x86_64-pc-linux-gnu"

@.str = private unnamed_addr constant [16 x i8] c"%lf%lf%lf%lf%lf\00", align 1
@.str.1 = private unnamed_addr constant [15 x i8] c"Invalid input\0A\00", align 1
@.str.2 = private unnamed_addr constant [6 x i8] c"%.4lf\00", align 1

; Function Attrs: noinline nounwind uwtable
define dso_local i32 @main() #0 {
  %1 = alloca i32, align 4
  %2 = alloca double, align 8
  %3 = alloca double, align 8
  %4 = alloca double, align 8
  %5 = alloca double, align 8
  %6 = alloca double, align 8
  %7 = alloca double, align 8
  %8 = alloca double, align 8
  %9 = alloca double, align 8
  %10 = alloca double, align 8
  store i32 0, i32* %1, align 4
  %11 = call i32 (i8*, ...) @__isoc99_scanf(i8* getelementptr inbounds ([16 x i8], [16 x i8]* @.str, i64 0, i64 0), double* %3, double* %4, double* %5, double* %6, double* %7)
  %12 = load double, double* %3, align 8
  %13 = load double, double* %4, align 8
  %14 = fadd double %12, %13
  %15 = load double, double* %5, align 8
  %16 = fadd double %14, %15
  %17 = load double, double* %6, align 8
  %18 = fadd double %16, %17
  %19 = fmul double 5.000000e-01, %18
  store double %19, double* %2, align 8
  %20 = load double, double* %7, align 8
  %21 = fdiv double %20, 3.600000e+02
  %22 = fmul double %21, 0x400921FB4D12D84A
  store double %22, double* %10, align 8
  %23 = load double, double* %10, align 8
  %24 = call double @cos(double %23) #3
  store double %24, double* %8, align 8
  %25 = load double, double* %2, align 8
  %26 = load double, double* %3, align 8
  %27 = fsub double %25, %26
  %28 = load double, double* %2, align 8
  %29 = load double, double* %4, align 8
  %30 = fsub double %28, %29
  %31 = fmul double %27, %30
  %32 = load double, double* %2, align 8
  %33 = load double, double* %5, align 8
  %34 = fsub double %32, %33
  %35 = fmul double %31, %34
  %36 = load double, double* %2, align 8
  %37 = load double, double* %6, align 8
  %38 = fsub double %36, %37
  %39 = fmul double %35, %38
  %40 = load double, double* %3, align 8
  %41 = load double, double* %4, align 8
  %42 = fmul double %40, %41
  %43 = load double, double* %5, align 8
  %44 = fmul double %42, %43
  %45 = load double, double* %6, align 8
  %46 = fmul double %44, %45
  %47 = load double, double* %8, align 8
  %48 = fmul double %46, %47
  %49 = load double, double* %8, align 8
  %50 = fmul double %48, %49
  %51 = fsub double %39, %50
  %52 = fcmp olt double %51, 0.000000e+00
  br i1 %52, label %53, label %55

53:                                               ; preds = %0
  %54 = call i32 (i8*, ...) @printf(i8* getelementptr inbounds ([15 x i8], [15 x i8]* @.str.1, i64 0, i64 0))
  br label %86

55:                                               ; preds = %0
  %56 = load double, double* %2, align 8
  %57 = load double, double* %3, align 8
  %58 = fsub double %56, %57
  %59 = load double, double* %2, align 8
  %60 = load double, double* %4, align 8
  %61 = fsub double %59, %60
  %62 = fmul double %58, %61
  %63 = load double, double* %2, align 8
  %64 = load double, double* %5, align 8
  %65 = fsub double %63, %64
  %66 = fmul double %62, %65
  %67 = load double, double* %2, align 8
  %68 = load double, double* %6, align 8
  %69 = fsub double %67, %68
  %70 = fmul double %66, %69
  %71 = load double, double* %3, align 8
  %72 = load double, double* %4, align 8
  %73 = fmul double %71, %72
  %74 = load double, double* %5, align 8
  %75 = fmul double %73, %74
  %76 = load double, double* %6, align 8
  %77 = fmul double %75, %76
  %78 = load double, double* %8, align 8
  %79 = fmul double %77, %78
  %80 = load double, double* %8, align 8
  %81 = fmul double %79, %80
  %82 = fsub double %70, %81
  %83 = call double @sqrt(double %82) #3
  store double %83, double* %9, align 8
  %84 = load double, double* %9, align 8
  %85 = call i32 (i8*, ...) @printf(i8* getelementptr inbounds ([6 x i8], [6 x i8]* @.str.2, i64 0, i64 0), double %84)
  br label %86

86:                                               ; preds = %55, %53
  ret i32 0
}

declare dso_local i32 @__isoc99_scanf(i8*, ...) #1

; Function Attrs: nounwind
declare dso_local double @cos(double) #2

declare dso_local i32 @printf(i8*, ...) #1

; Function Attrs: nounwind
declare dso_local double @sqrt(double) #2


!llvm.module.flags = !{!0}
!llvm.ident = !{!1}

!0 = !{i32 1, !"wchar_size", i32 4}
!1 = !{!"clang version 10.0.0-4ubuntu1 "}
